; Function Attrs: mustprogress uwtable
define hidden void @_ZN4goal11assert_exprEP4exprPN18dependency_managerIN11ast_manager22expr_dependency_configEE10dependencyE(ptr noundef nonnull align 8 dereferenceable(124) %0, ptr noundef %1, ptr noundef %2) local_unnamed_addr #4 align 2 {
  %4 = getelementptr inbounds nuw i8, ptr %0, i64 120
  %5 = load i32, ptr %4, align 8
  %6 = and i32 %5, 134217728
  %.not = icmp eq i32 %6, 0
  br i1 %.not, label %10, label %7

7:                                                ; preds = %3
  %8 = load ptr, ptr %0, align 8, !tbaa !102
  %9 = tail call noundef ptr @_ZN11ast_manager11mk_assertedEP4expr(ptr noundef nonnull align 8 dereferenceable(976) %8, ptr noundef %1)
  br label %10

10:                                               ; preds = %3, %7
  %11 = phi ptr [ %9, %7 ], [ null, %3 ]
  tail call void @_ZN4goal11assert_exprEP4exprP3appPN18dependency_managerIN11ast_manager22expr_dependency_configEE10dependencyE(ptr noundef nonnull align 8 dereferenceable(124) %0, ptr noundef %1, ptr noundef %11, ptr noundef %2)
  ret void
}